(dp0
S'A'
p1
I1176
sS'C'
p2
I31
sS'E'
p3
I1077
sS'D'
p4
I673
sS'G'
p5
I620
sS'F'
p6
I251
sS'I'
p7
I489
sS'H'
p8
I87
sS'K'
p9
I730
sS'M'
p10
I251
sS'L'
p11
I1286
sS'N'
p12
I376
sS'Q'
p13
I600
sS'P'
p14
I302
sS'S'
p15
I539
sS'R'
p16
I813
sS'T'
p17
I331
sS'W'
p18
I71
sS'V'
p19
I564
sS'Y'
p20
I259
sS'X'
p21
I32
s.