(dp0
S'A'
p1
I533
sS'C'
p2
I53
sS'E'
p3
I183
sS'D'
p4
I73
sS'G'
p5
I181
sS'F'
p6
I134
sS'I'
p7
I255
sS'H'
p8
I209
sS'K'
p9
I632
sS'M'
p10
I285
sS'L'
p11
I886
sS'N'
p12
I155
sS'Q'
p13
I102
sS'P'
p14
I165
sS'S'
p15
I552
sS'R'
p16
I399
sS'T'
p17
I238
sS'W'
p18
I146
sS'V'
p19
I256
sS'Y'
p20
I167
sS'X'
p21
I1
s.